; Function Attrs: nounwind uwtable
define hidden i32 @VP8ExitCritical(ptr noundef %0, ptr noundef %1) local_unnamed_addr #0 {
  %3 = getelementptr inbounds i8, ptr %0, i64 200
  %4 = load i32, ptr %3, align 8
  %5 = icmp sgt i32 %4, 0
  br i1 %5, label %6, label %12

6:                                                ; preds = %2
  %7 = tail call ptr @WebPGetWorkerInterface() #7
  %8 = getelementptr inbounds i8, ptr %7, i64 16
  %9 = load ptr, ptr %8, align 8
  %10 = getelementptr inbounds i8, ptr %0, i64 152
  %11 = tail call i32 %9(ptr noundef nonnull %10) #7
  br label %12

12:                                               ; preds = %6, %2
  %.0 = phi i32 [ %11, %6 ], [ 1, %2 ]
  %13 = getelementptr inbounds i8, ptr %1, i64 80
  %14 = load ptr, ptr %13, align 8
  %.not = icmp eq ptr %14, null
  br i1 %.not, label %16, label %15

15:                                               ; preds = %12
  tail call void %14(ptr noundef nonnull %1) #7
  br label %16

16:                                               ; preds = %15, %12
  ret i32 %.0
}